; Function Attrs: mustprogress nofree nounwind willreturn memory(readwrite, inaccessiblemem: write) uwtable
define internal void @_ZN19OpenColorIO_v2_4dev12_GLOBAL__N_121ECLogarithmicRenderer10updateDataERSt10shared_ptrIKNS_22ExposureContrastOpDataEE(ptr nocapture noundef nonnull writeonly align 8 dereferenceable(64) %this, ptr nocapture noundef nonnull readonly align 8 dereferenceable(16) %ec) unnamed_addr #18 align 2 {
entry:
  %0 = load ptr, ptr %ec, align 8
  %m_pivot.i = getelementptr inbounds i8, ptr %0, i64 224
  %1 = load double, ptr %m_pivot.i, align 8
  %cmp.i = fcmp ogt double %1, 1.000000e-03
  %.sroa.speculated7 = select i1 %cmp.i, double %1, double 1.000000e-03
  %conv = fptrunc double %.sroa.speculated7 to float
  %conv6 = fpext float %conv to double
  %div = fdiv double %conv6, 1.800000e-01
  %call7 = tail call double @log2(double noundef %div) #23
  %2 = load ptr, ptr %ec, align 8
  %m_logExposureStep.i = getelementptr inbounds i8, ptr %2, i64 232
  %3 = load double, ptr %m_logExposureStep.i, align 8
  %m_logMidGray.i = getelementptr inbounds i8, ptr %2, i64 240
  %4 = load double, ptr %m_logMidGray.i, align 8
  %5 = tail call double @llvm.fmuladd.f64(double %call7, double %3, double %4)
  %cmp.i4 = fcmp ogt double %5, 0.000000e+00
  %.sroa.speculated = select i1 %cmp.i4, double %5, double 0.000000e+00
  %conv13 = fptrunc double %.sroa.speculated to float
  %m_pivot = getelementptr inbounds i8, ptr %this, i64 56
  store float %conv13, ptr %m_pivot, align 8
  %6 = load ptr, ptr %ec, align 8
  %m_logExposureStep.i6 = getelementptr inbounds i8, ptr %6, i64 232
  %7 = load double, ptr %m_logExposureStep.i6, align 8
  %conv16 = fptrunc double %7 to float
  %m_logExposureStep = getelementptr inbounds i8, ptr %this, i64 60
  store float %conv16, ptr %m_logExposureStep, align 4
  ret void
}